target datalayout = "e-m:e-p270:32:32-p271:32:32-p272:64:64-i64:64-i128:128-f80:128-n8:16:32:64-S128"
target triple = "x86_64-pc-linux-gnu"

%struct.SDL_Mouse = type { ptr, ptr, ptr, ptr, ptr, ptr, ptr, ptr, ptr, ptr, ptr, ptr, ptr, ptr, i8, float, float, ptr, float, float, float, float, float, float, float, float, double, double, i8, i8, i8, i8, i8, i8, i8, i8, i64, i8, float, i8, float, i8, i32, i32, i8, i8, i8, i8, i8, i8, i8, i8, i8, ptr, i32, ptr, ptr, ptr, ptr, i8, ptr }
%struct.SDL_Cursor = type { ptr, ptr }

@SDL_mouse = internal global %struct.SDL_Mouse zeroinitializer, align 8
@.str.28 = private unnamed_addr constant [45 x i8] c"Cursor not associated with the current mouse\00", align 1

; Function Attrs: nounwind uwtable
define hidden void @SDL_RedrawCursor() #0 {
  %1 = alloca ptr, align 8
  %2 = alloca ptr, align 8
  call void @llvm.lifetime.start.p0(i64 8, ptr %1) #7
  %3 = call ptr @SDL_GetMouse()
  store ptr %3, ptr %1, align 8
  call void @llvm.lifetime.start.p0(i64 8, ptr %2) #7
  %4 = load ptr, ptr %1, align 8
  %5 = getelementptr inbounds nuw %struct.SDL_Mouse, ptr %4, i32 0, i32 17
  %6 = load ptr, ptr %5, align 8
  %7 = icmp ne ptr %6, null
  br i1 %7, label %8, label %12

8:                                                ; preds = %0
  %9 = load ptr, ptr %1, align 8
  %10 = getelementptr inbounds nuw %struct.SDL_Mouse, ptr %9, i32 0, i32 58
  %11 = load ptr, ptr %10, align 8
  store ptr %11, ptr %2, align 8
  br label %16

12:                                               ; preds = %0
  %13 = load ptr, ptr %1, align 8
  %14 = getelementptr inbounds nuw %struct.SDL_Mouse, ptr %13, i32 0, i32 57
  %15 = load ptr, ptr %14, align 8
  store ptr %15, ptr %2, align 8
  br label %16

16:                                               ; preds = %12, %8
  %17 = load ptr, ptr %1, align 8
  %18 = getelementptr inbounds nuw %struct.SDL_Mouse, ptr %17, i32 0, i32 17
  %19 = load ptr, ptr %18, align 8
  %20 = icmp ne ptr %19, null
  br i1 %20, label %21, label %37

21:                                               ; preds = %16
  %22 = load ptr, ptr %1, align 8
  %23 = getelementptr inbounds nuw %struct.SDL_Mouse, ptr %22, i32 0, i32 59
  %24 = load i8, ptr %23, align 8, !range !3, !noundef !4
  %25 = trunc i8 %24 to i1
  br i1 %25, label %26, label %36

26:                                               ; preds = %21
  %27 = load ptr, ptr %1, align 8
  %28 = getelementptr inbounds nuw %struct.SDL_Mouse, ptr %27, i32 0, i32 29
  %29 = load i8, ptr %28, align 1, !range !3, !noundef !4
  %30 = trunc i8 %29 to i1
  br i1 %30, label %31, label %37

31:                                               ; preds = %26
  %32 = load ptr, ptr %1, align 8
  %33 = getelementptr inbounds nuw %struct.SDL_Mouse, ptr %32, i32 0, i32 31
  %34 = load i8, ptr %33, align 1, !range !3, !noundef !4
  %35 = trunc i8 %34 to i1
  br i1 %35, label %36, label %37

36:                                               ; preds = %31, %21
  store ptr null, ptr %2, align 8
  br label %37

37:                                               ; preds = %36, %31, %26, %16
  %38 = load ptr, ptr %1, align 8
  %39 = getelementptr inbounds nuw %struct.SDL_Mouse, ptr %38, i32 0, i32 2
  %40 = load ptr, ptr %39, align 8
  %41 = icmp ne ptr %40, null
  br i1 %41, label %42, label %48

42:                                               ; preds = %37
  %43 = load ptr, ptr %1, align 8
  %44 = getelementptr inbounds nuw %struct.SDL_Mouse, ptr %43, i32 0, i32 2
  %45 = load ptr, ptr %44, align 8
  %46 = load ptr, ptr %2, align 8
  %47 = call zeroext i1 %45(ptr noundef %46)
  br label %48

48:                                               ; preds = %42, %37
  call void @llvm.lifetime.end.p0(i64 8, ptr %2) #7
  call void @llvm.lifetime.end.p0(i64 8, ptr %1) #7
  ret void
}

; Function Attrs: nounwind uwtable
define hidden zeroext i1 @SDL_SetCursor_REAL(ptr noundef %0) #0 {
  %2 = alloca i1, align 1
  %3 = alloca ptr, align 8
  %4 = alloca ptr, align 8
  %5 = alloca i32, align 4
  %6 = alloca ptr, align 8
  store ptr %0, ptr %3, align 8
  call void @llvm.lifetime.start.p0(i64 8, ptr %4) #7
  %7 = call ptr @SDL_GetMouse()
  store ptr %7, ptr %4, align 8
  %8 = load ptr, ptr %3, align 8
  %9 = load ptr, ptr %4, align 8
  %10 = getelementptr inbounds nuw %struct.SDL_Mouse, ptr %9, i32 0, i32 58
  %11 = load ptr, ptr %10, align 8
  %12 = icmp eq ptr %8, %11
  br i1 %12, label %13, label %14

13:                                               ; preds = %1
  store i1 true, ptr %2, align 1
  store i32 1, ptr %5, align 4
  br label %54

14:                                               ; preds = %1
  %15 = load ptr, ptr %3, align 8
  %16 = icmp ne ptr %15, null
  br i1 %16, label %17, label %53

17:                                               ; preds = %14
  %18 = load ptr, ptr %3, align 8
  %19 = load ptr, ptr %4, align 8
  %20 = getelementptr inbounds nuw %struct.SDL_Mouse, ptr %19, i32 0, i32 57
  %21 = load ptr, ptr %20, align 8
  %22 = icmp ne ptr %18, %21
  br i1 %22, label %23, label %49

23:                                               ; preds = %17
  call void @llvm.lifetime.start.p0(i64 8, ptr %6) #7
  %24 = load ptr, ptr %4, align 8
  %25 = getelementptr inbounds nuw %struct.SDL_Mouse, ptr %24, i32 0, i32 56
  %26 = load ptr, ptr %25, align 8
  store ptr %26, ptr %6, align 8
  br label %27

27:                                               ; preds = %36, %23
  %28 = load ptr, ptr %6, align 8
  %29 = icmp ne ptr %28, null
  br i1 %29, label %30, label %40

30:                                               ; preds = %27
  %31 = load ptr, ptr %6, align 8
  %32 = load ptr, ptr %3, align 8
  %33 = icmp eq ptr %31, %32
  br i1 %33, label %34, label %35

34:                                               ; preds = %30
  br label %40

35:                                               ; preds = %30
  br label %36

36:                                               ; preds = %35
  %37 = load ptr, ptr %6, align 8
  %38 = getelementptr inbounds nuw %struct.SDL_Cursor, ptr %37, i32 0, i32 0
  %39 = load ptr, ptr %38, align 8
  store ptr %39, ptr %6, align 8
  br label %27, !llvm.loop !10

40:                                               ; preds = %34, %27
  %41 = load ptr, ptr %6, align 8
  %42 = icmp ne ptr %41, null
  br i1 %42, label %45, label %43

43:                                               ; preds = %40
  %44 = call zeroext i1 (ptr, ...) @SDL_SetError_REAL(ptr noundef @.str.28)
  store i1 %44, ptr %2, align 1
  store i32 1, ptr %5, align 4
  br label %46

45:                                               ; preds = %40
  store i32 0, ptr %5, align 4
  br label %46

46:                                               ; preds = %45, %43
  call void @llvm.lifetime.end.p0(i64 8, ptr %6) #7
  %47 = load i32, ptr %5, align 4
  switch i32 %47, label %54 [
    i32 0, label %48
  ]

48:                                               ; preds = %46
  br label %49

49:                                               ; preds = %48, %17
  %50 = load ptr, ptr %3, align 8
  %51 = load ptr, ptr %4, align 8
  %52 = getelementptr inbounds nuw %struct.SDL_Mouse, ptr %51, i32 0, i32 58
  store ptr %50, ptr %52, align 8
  br label %53

53:                                               ; preds = %49, %14
  call void @SDL_RedrawCursor()
  store i1 true, ptr %2, align 1
  store i32 1, ptr %5, align 4
  br label %54

54:                                               ; preds = %53, %46, %13
  call void @llvm.lifetime.end.p0(i64 8, ptr %4) #7
  %55 = load i1, ptr %2, align 1
  ret i1 %55
}

; Function Attrs: nounwind uwtable
define hidden ptr @SDL_GetMouse() #0 {
  ret ptr @SDL_mouse
}

; Function Attrs: nounwind uwtable
define hidden void @SDL_DestroyCursor_REAL(ptr noundef %0) #0 {
  %2 = alloca ptr, align 8
  %3 = alloca ptr, align 8
  %4 = alloca ptr, align 8
  %5 = alloca ptr, align 8
  %6 = alloca i32, align 4
  store ptr %0, ptr %2, align 8
  call void @llvm.lifetime.start.p0(i64 8, ptr %3) #7
  %7 = call ptr @SDL_GetMouse()
  store ptr %7, ptr %3, align 8
  call void @llvm.lifetime.start.p0(i64 8, ptr %4) #7
  call void @llvm.lifetime.start.p0(i64 8, ptr %5) #7
  %8 = load ptr, ptr %2, align 8
  %9 = icmp ne ptr %8, null
  br i1 %9, label %11, label %10

10:                                               ; preds = %1
  store i32 1, ptr %6, align 4
  br label %80

11:                                               ; preds = %1
  %12 = load ptr, ptr %2, align 8
  %13 = load ptr, ptr %3, align 8
  %14 = getelementptr inbounds nuw %struct.SDL_Mouse, ptr %13, i32 0, i32 57
  %15 = load ptr, ptr %14, align 8
  %16 = icmp eq ptr %12, %15
  br i1 %16, label %17, label %18

17:                                               ; preds = %11
  store i32 1, ptr %6, align 4
  br label %80

18:                                               ; preds = %11
  %19 = load ptr, ptr %2, align 8
  %20 = load ptr, ptr %3, align 8
  %21 = getelementptr inbounds nuw %struct.SDL_Mouse, ptr %20, i32 0, i32 58
  %22 = load ptr, ptr %21, align 8
  %23 = icmp eq ptr %19, %22
  br i1 %23, label %24, label %29

24:                                               ; preds = %18
  %25 = load ptr, ptr %3, align 8
  %26 = getelementptr inbounds nuw %struct.SDL_Mouse, ptr %25, i32 0, i32 57
  %27 = load ptr, ptr %26, align 8
  %28 = call zeroext i1 @SDL_SetCursor_REAL(ptr noundef %27)
  br label %29

29:                                               ; preds = %24, %18
  store ptr null, ptr %5, align 8
  %30 = load ptr, ptr %3, align 8
  %31 = getelementptr inbounds nuw %struct.SDL_Mouse, ptr %30, i32 0, i32 56
  %32 = load ptr, ptr %31, align 8
  store ptr %32, ptr %4, align 8
  br label %33

33:                                               ; preds = %74, %29
  %34 = load ptr, ptr %4, align 8
  %35 = icmp ne ptr %34, null
  br i1 %35, label %36, label %79

36:                                               ; preds = %33
  %37 = load ptr, ptr %4, align 8
  %38 = load ptr, ptr %2, align 8
  %39 = icmp eq ptr %37, %38
  br i1 %39, label %40, label %73

40:                                               ; preds = %36
  %41 = load ptr, ptr %5, align 8
  %42 = icmp ne ptr %41, null
  br i1 %42, label %43, label %49

43:                                               ; preds = %40
  %44 = load ptr, ptr %4, align 8
  %45 = getelementptr inbounds nuw %struct.SDL_Cursor, ptr %44, i32 0, i32 0
  %46 = load ptr, ptr %45, align 8
  %47 = load ptr, ptr %5, align 8
  %48 = getelementptr inbounds nuw %struct.SDL_Cursor, ptr %47, i32 0, i32 0
  store ptr %46, ptr %48, align 8
  br label %55

49:                                               ; preds = %40
  %50 = load ptr, ptr %4, align 8
  %51 = getelementptr inbounds nuw %struct.SDL_Cursor, ptr %50, i32 0, i32 0
  %52 = load ptr, ptr %51, align 8
  %53 = load ptr, ptr %3, align 8
  %54 = getelementptr inbounds nuw %struct.SDL_Mouse, ptr %53, i32 0, i32 56
  store ptr %52, ptr %54, align 8
  br label %55

55:                                               ; preds = %49, %43
  %56 = load ptr, ptr %3, align 8
  %57 = getelementptr inbounds nuw %struct.SDL_Mouse, ptr %56, i32 0, i32 4
  %58 = load ptr, ptr %57, align 8
  %59 = icmp ne ptr %58, null
  br i1 %59, label %60, label %70

60:                                               ; preds = %55
  %61 = load ptr, ptr %4, align 8
  %62 = getelementptr inbounds nuw %struct.SDL_Cursor, ptr %61, i32 0, i32 1
  %63 = load ptr, ptr %62, align 8
  %64 = icmp ne ptr %63, null
  br i1 %64, label %65, label %70

65:                                               ; preds = %60
  %66 = load ptr, ptr %3, align 8
  %67 = getelementptr inbounds nuw %struct.SDL_Mouse, ptr %66, i32 0, i32 4
  %68 = load ptr, ptr %67, align 8
  %69 = load ptr, ptr %4, align 8
  call void %68(ptr noundef %69)
  br label %72

70:                                               ; preds = %60, %55
  %71 = load ptr, ptr %4, align 8
  call void @SDL_free_REAL(ptr noundef %71)
  br label %72

72:                                               ; preds = %70, %65
  store i32 1, ptr %6, align 4
  br label %80

73:                                               ; preds = %36
  br label %74

74:                                               ; preds = %73
  %75 = load ptr, ptr %4, align 8
  store ptr %75, ptr %5, align 8
  %76 = load ptr, ptr %4, align 8
  %77 = getelementptr inbounds nuw %struct.SDL_Cursor, ptr %76, i32 0, i32 0
  %78 = load ptr, ptr %77, align 8
  store ptr %78, ptr %4, align 8
  br label %33, !llvm.loop !15

79:                                               ; preds = %33
  store i32 0, ptr %6, align 4
  br label %80

80:                                               ; preds = %79, %72, %17, %10
  call void @llvm.lifetime.end.p0(i64 8, ptr %5) #7
  call void @llvm.lifetime.end.p0(i64 8, ptr %4) #7
  call void @llvm.lifetime.end.p0(i64 8, ptr %3) #7
  %81 = load i32, ptr %6, align 4
  switch i32 %81, label %83 [
    i32 0, label %82
    i32 1, label %82
  ]

82:                                               ; preds = %80, %80
  ret void

83:                                               ; preds = %80
  unreachable
}