; Function Attrs: nounwind uwtable
define hidden void @SDL_DestroyCursor_REAL(ptr noundef readnone captures(address) %0) local_unnamed_addr #0 {
  %.not = icmp eq ptr %0, null
  br i1 %.not, label %.loopexit, label %2

2:                                                ; preds = %1
  %3 = load ptr, ptr getelementptr inbounds nuw (i8, ptr @SDL_mouse, i64 272), align 8
  %4 = icmp eq ptr %0, %3
  br i1 %4, label %.loopexit, label %5

5:                                                ; preds = %2
  %6 = load ptr, ptr getelementptr inbounds nuw (i8, ptr @SDL_mouse, i64 280), align 8
  %.not30 = icmp eq ptr %0, %6
  br i1 %.not30, label %7, label %SDL_SetCursor_REAL.exit.preheader

7:                                                ; preds = %5
  %.not.i = icmp eq ptr %3, null
  br i1 %.not.i, label %9, label %8

8:                                                ; preds = %7
  store ptr %3, ptr getelementptr inbounds nuw (i8, ptr @SDL_mouse, i64 280), align 8
  br label %9

9:                                                ; preds = %8, %7
  %.val14.i.i = phi ptr [ %3, %8 ], [ %6, %7 ]
  %10 = load ptr, ptr getelementptr inbounds nuw (i8, ptr @SDL_mouse, i64 128), align 8
  %.not.i.i = icmp eq ptr %10, null
  br i1 %.not.i.i, label %20, label %11

11:                                               ; preds = %9
  %12 = load i8, ptr getelementptr inbounds nuw (i8, ptr @SDL_mouse, i64 288), align 8, !range !3, !noundef !4
  %13 = trunc nuw i8 %12 to i1
  br i1 %13, label %14, label %19

14:                                               ; preds = %11
  %15 = load i8, ptr getelementptr inbounds nuw (i8, ptr @SDL_mouse, i64 185), align 1, !range !3, !noundef !4
  %16 = trunc nuw i8 %15 to i1
  %17 = load i8, ptr getelementptr inbounds nuw (i8, ptr @SDL_mouse, i64 187), align 1, !range !3
  %18 = trunc nuw i8 %17 to i1
  %or.cond.i.i = select i1 %16, i1 %18, i1 false
  br i1 %or.cond.i.i, label %19, label %20

19:                                               ; preds = %14, %11
  br label %20

20:                                               ; preds = %19, %14, %9
  %.1.i.i = phi ptr [ null, %19 ], [ %.val14.i.i, %14 ], [ %3, %9 ]
  %21 = load ptr, ptr getelementptr inbounds nuw (i8, ptr @SDL_mouse, i64 16), align 8
  %.not12.i.i = icmp eq ptr %21, null
  br i1 %.not12.i.i, label %SDL_SetCursor_REAL.exit.preheader, label %22

22:                                               ; preds = %20
  %23 = tail call zeroext i1 %21(ptr noundef %.1.i.i) #13
  br label %SDL_SetCursor_REAL.exit.preheader

SDL_SetCursor_REAL.exit.preheader:                ; preds = %22, %20, %5
  br label %SDL_SetCursor_REAL.exit

SDL_SetCursor_REAL.exit:                          ; preds = %SDL_SetCursor_REAL.exit.preheader, %24
  %.022.in = phi ptr [ %.022, %24 ], [ getelementptr inbounds nuw (i8, ptr @SDL_mouse, i64 264), %SDL_SetCursor_REAL.exit.preheader ]
  %.0 = phi ptr [ %.022, %24 ], [ null, %SDL_SetCursor_REAL.exit.preheader ]
  %.022 = load ptr, ptr %.022.in, align 8
  %.not26 = icmp eq ptr %.022, null
  br i1 %.not26, label %.loopexit, label %24

24:                                               ; preds = %SDL_SetCursor_REAL.exit
  %25 = icmp eq ptr %.022, %0
  br i1 %25, label %26, label %SDL_SetCursor_REAL.exit, !llvm.loop !15

26:                                               ; preds = %24
  %.not27 = icmp eq ptr %.0, null
  %27 = load ptr, ptr %.022, align 8
  br i1 %.not27, label %29, label %28

28:                                               ; preds = %26
  store ptr %27, ptr %.0, align 8
  br label %30

29:                                               ; preds = %26
  store ptr %27, ptr getelementptr inbounds nuw (i8, ptr @SDL_mouse, i64 264), align 8
  br label %30

30:                                               ; preds = %29, %28
  %31 = load ptr, ptr getelementptr inbounds nuw (i8, ptr @SDL_mouse, i64 32), align 8
  %.not28 = icmp eq ptr %31, null
  br i1 %.not28, label %36, label %32

32:                                               ; preds = %30
  %33 = getelementptr inbounds nuw i8, ptr %.022, i64 8
  %34 = load ptr, ptr %33, align 8
  %.not29 = icmp eq ptr %34, null
  br i1 %.not29, label %36, label %35

35:                                               ; preds = %32
  tail call void %31(ptr noundef nonnull %.022) #13
  br label %.loopexit

36:                                               ; preds = %32, %30
  tail call void @SDL_free_REAL(ptr noundef nonnull %.022) #13
  br label %.loopexit

.loopexit:                                        ; preds = %SDL_SetCursor_REAL.exit, %35, %36, %2, %1
  ret void
}